target datalayout = "e-m:e-p270:32:32-p271:32:32-p272:64:64-i64:64-i128:128-f80:128-n8:16:32:64-S128"
target triple = "x86_64-unknown-linux-gnu"

; Function Attrs: nounwind sspstrong uwtable
define dso_local i32 @qemu_input_scale_axis(i32 noundef %value, i32 noundef %min_in, i32 noundef %max_in, i32 noundef %min_out, i32 noundef %max_out) #0 {
entry:
  %retval = alloca i32, align 4
  %value.addr = alloca i32, align 4
  %min_in.addr = alloca i32, align 4
  %max_in.addr = alloca i32, align 4
  %min_out.addr = alloca i32, align 4
  %max_out.addr = alloca i32, align 4
  %range_in = alloca i64, align 8
  %range_out = alloca i64, align 8
  store i32 %value, ptr %value.addr, align 4
  store i32 %min_in, ptr %min_in.addr, align 4
  store i32 %max_in, ptr %max_in.addr, align 4
  store i32 %min_out, ptr %min_out.addr, align 4
  store i32 %max_out, ptr %max_out.addr, align 4
  %0 = load i32, ptr %max_in.addr, align 4
  %conv = sext i32 %0 to i64
  %1 = load i32, ptr %min_in.addr, align 4
  %conv1 = sext i32 %1 to i64
  %sub = sub i64 %conv, %conv1
  store i64 %sub, ptr %range_in, align 8
  %2 = load i32, ptr %max_out.addr, align 4
  %conv2 = sext i32 %2 to i64
  %3 = load i32, ptr %min_out.addr, align 4
  %conv3 = sext i32 %3 to i64
  %sub4 = sub i64 %conv2, %conv3
  store i64 %sub4, ptr %range_out, align 8
  %4 = load i64, ptr %range_in, align 8
  %cmp = icmp slt i64 %4, 1
  br i1 %cmp, label %if.then, label %if.end

if.then:                                          ; preds = %entry
  %5 = load i32, ptr %min_out.addr, align 4
  %conv6 = sext i32 %5 to i64
  %6 = load i64, ptr %range_out, align 8
  %div = sdiv i64 %6, 2
  %add = add i64 %conv6, %div
  %conv7 = trunc i64 %add to i32
  store i32 %conv7, ptr %retval, align 4
  br label %return

if.end:                                           ; preds = %entry
  %7 = load i32, ptr %value.addr, align 4
  %conv8 = sext i32 %7 to i64
  %8 = load i32, ptr %min_in.addr, align 4
  %conv9 = sext i32 %8 to i64
  %sub10 = sub i64 %conv8, %conv9
  %9 = load i64, ptr %range_out, align 8
  %mul = mul i64 %sub10, %9
  %10 = load i64, ptr %range_in, align 8
  %div11 = sdiv i64 %mul, %10
  %11 = load i32, ptr %min_out.addr, align 4
  %conv12 = sext i32 %11 to i64
  %add13 = add i64 %div11, %conv12
  %conv14 = trunc i64 %add13 to i32
  store i32 %conv14, ptr %retval, align 4
  br label %return

return:                                           ; preds = %if.end, %if.then
  %12 = load i32, ptr %retval, align 4
  ret i32 %12
}