; Function Attrs: mustprogress nofree norecurse nosync nounwind sspstrong willreturn memory(none) uwtable
define dso_local i32 @qemu_input_scale_axis(i32 noundef %value, i32 noundef %min_in, i32 noundef %max_in, i32 noundef %min_out, i32 noundef %max_out) local_unnamed_addr #5 {
entry:
  %conv = sext i32 %max_in to i64
  %conv1 = sext i32 %min_in to i64
  %sub = sub nsw i64 %conv, %conv1
  %conv2 = sext i32 %max_out to i64
  %conv3 = sext i32 %min_out to i64
  %sub4 = sub nsw i64 %conv2, %conv3
  %cmp = icmp slt i64 %sub, 1
  br i1 %cmp, label %if.then, label %if.end

if.then:                                          ; preds = %entry
  %div = sdiv i64 %sub4, 2
  br label %return

if.end:                                           ; preds = %entry
  %conv8 = sext i32 %value to i64
  %sub10 = sub nsw i64 %conv8, %conv1
  %mul = mul i64 %sub4, %sub10
  %div11 = sdiv i64 %mul, %sub
  br label %return

return:                                           ; preds = %if.end, %if.then
  %.pn.in = phi i64 [ %div, %if.then ], [ %div11, %if.end ]
  %.pn = trunc i64 %.pn.in to i32
  %retval.0 = add i32 %min_out, %.pn
  ret i32 %retval.0
}